target datalayout = "e-m:e-p270:32:32-p271:32:32-p272:64:64-i64:64-i128:128-f80:128-n8:16:32:64-S128"
target triple = "x86_64-pc-linux-gnu"

%struct.buffer = type { i32, %struct.stat, ptr, i64, i64, ptr, i64 }
%struct.stat = type { i64, i64, i64, i32, i32, i32, i32, i64, i64, i64, i64, %struct.timespec, %struct.timespec, %struct.timespec, [3 x i64] }
%struct.timespec = type { i64, i64 }

; Function Attrs: nounwind uwtable
define hidden void @buffer_init(ptr noundef %0, i32 noundef %1, ptr noundef %2, ptr noundef %3, i64 noundef %4) #0 {
  %6 = alloca ptr, align 8
  %7 = alloca i32, align 4
  %8 = alloca ptr, align 8
  %9 = alloca ptr, align 8
  %10 = alloca i64, align 8
  store ptr %0, ptr %6, align 8
  store i32 %1, ptr %7, align 4
  store ptr %2, ptr %8, align 8
  store ptr %3, ptr %9, align 8
  store i64 %4, ptr %10, align 8
  %11 = load i32, ptr %7, align 4
  %12 = load ptr, ptr %6, align 8
  %13 = getelementptr inbounds %struct.buffer, ptr %12, i32 0, i32 0
  store i32 %11, ptr %13, align 8
  %14 = load ptr, ptr %8, align 8
  %15 = icmp ne ptr %14, null
  br i1 %15, label %16, label %20

16:                                               ; preds = %5
  %17 = load ptr, ptr %6, align 8
  %18 = getelementptr inbounds %struct.buffer, ptr %17, i32 0, i32 1
  %19 = load ptr, ptr %8, align 8
  call void @llvm.memcpy.p0.p0.i64(ptr align 8 %18, ptr align 8 %19, i64 144, i1 false)
  br label %37

20:                                               ; preds = %5
  %21 = load ptr, ptr %6, align 8
  %22 = getelementptr inbounds %struct.buffer, ptr %21, i32 0, i32 0
  %23 = load i32, ptr %22, align 8
  %24 = icmp eq i32 %23, -1
  br i1 %24, label %33, label %25

25:                                               ; preds = %20
  %26 = load ptr, ptr %6, align 8
  %27 = getelementptr inbounds %struct.buffer, ptr %26, i32 0, i32 0
  %28 = load i32, ptr %27, align 8
  %29 = load ptr, ptr %6, align 8
  %30 = getelementptr inbounds %struct.buffer, ptr %29, i32 0, i32 1
  %31 = call i32 @fstat(i32 noundef %28, ptr noundef %30) #7
  %32 = icmp eq i32 %31, -1
  br i1 %32, label %33, label %36

33:                                               ; preds = %25, %20
  %34 = load ptr, ptr %6, align 8
  %35 = getelementptr inbounds %struct.buffer, ptr %34, i32 0, i32 1
  call void @llvm.memset.p0.i64(ptr align 8 %35, i8 0, i64 144, i1 false)
  br label %36

36:                                               ; preds = %33, %25
  br label %37

37:                                               ; preds = %36, %16
  %38 = load ptr, ptr %9, align 8
  %39 = load ptr, ptr %6, align 8
  %40 = getelementptr inbounds %struct.buffer, ptr %39, i32 0, i32 2
  store ptr %38, ptr %40, align 8
  %41 = load i64, ptr %10, align 8
  %42 = load ptr, ptr %6, align 8
  %43 = getelementptr inbounds %struct.buffer, ptr %42, i32 0, i32 3
  store i64 %41, ptr %43, align 8
  %44 = load ptr, ptr %6, align 8
  %45 = getelementptr inbounds %struct.buffer, ptr %44, i32 0, i32 4
  store i64 0, ptr %45, align 8
  %46 = load ptr, ptr %6, align 8
  %47 = getelementptr inbounds %struct.buffer, ptr %46, i32 0, i32 5
  store ptr null, ptr %47, align 8
  %48 = load ptr, ptr %6, align 8
  %49 = getelementptr inbounds %struct.buffer, ptr %48, i32 0, i32 6
  store i64 0, ptr %49, align 8
  ret void
}