; Function Attrs: nofree nounwind uwtable
define hidden void @buffer_init(ptr nocapture noundef %0, i32 noundef %1, ptr noundef readonly %2, ptr noundef %3, i64 noundef %4) local_unnamed_addr #0 {
  store i32 %1, ptr %0, align 8
  %.not = icmp eq ptr %2, null
  br i1 %.not, label %8, label %6

6:                                                ; preds = %5
  %7 = getelementptr inbounds i8, ptr %0, i64 8
  tail call void @llvm.memcpy.p0.p0.i64(ptr noundef nonnull align 8 dereferenceable(144) %7, ptr noundef nonnull align 8 dereferenceable(144) %2, i64 144, i1 false)
  br label %16

8:                                                ; preds = %5
  %9 = icmp eq i32 %1, -1
  br i1 %9, label %14, label %10

10:                                               ; preds = %8
  %11 = getelementptr inbounds i8, ptr %0, i64 8
  %12 = tail call i32 @fstat(i32 noundef %1, ptr noundef nonnull %11) #10
  %13 = icmp eq i32 %12, -1
  br i1 %13, label %14, label %16

14:                                               ; preds = %10, %8
  %15 = getelementptr inbounds i8, ptr %0, i64 8
  tail call void @llvm.memset.p0.i64(ptr noundef nonnull align 8 dereferenceable(144) %15, i8 0, i64 144, i1 false)
  br label %16

16:                                               ; preds = %10, %14, %6
  %17 = getelementptr inbounds i8, ptr %0, i64 152
  store ptr %3, ptr %17, align 8
  %18 = getelementptr inbounds i8, ptr %0, i64 160
  store i64 %4, ptr %18, align 8
  %19 = getelementptr inbounds i8, ptr %0, i64 168
  tail call void @llvm.memset.p0.i64(ptr noundef nonnull align 8 dereferenceable(24) %19, i8 0, i64 24, i1 false)
  ret void
}